; Function Attrs: mustprogress uwtable
define hidden void @_ZN4cvc58internal6theory2uf20CardinalityExtension9SortModel27CardinalityDecisionStrategyC2ERNS0_3EnvENS0_8TypeNodeENS1_9ValuationE(ptr noundef nonnull align 8 dereferenceable(152) %0, ptr noundef nonnull align 8 dereferenceable(696) %1, ptr noundef readonly captures(none) %2, ptr %3) unnamed_addr #4 align 2 personality ptr @__gxx_personality_v0 {
  tail call void @_ZN4cvc58internal6theory19DecisionStrategyFmfC2ERNS0_3EnvENS1_9ValuationE(ptr noundef nonnull align 8 dereferenceable(144) %0, ptr noundef nonnull align 8 dereferenceable(696) %1, ptr %3)
  store ptr getelementptr inbounds nuw inrange(-16, 48) (i8, ptr @_ZTVN4cvc58internal6theory2uf20CardinalityExtension9SortModel27CardinalityDecisionStrategyE, i64 16), ptr %0, align 8, !tbaa !3
  %5 = getelementptr inbounds nuw i8, ptr %0, i64 144
  %6 = load ptr, ptr %2, align 8, !tbaa !270
  store ptr %6, ptr %5, align 8, !tbaa !270
  %7 = load i64, ptr %6, align 8
  %8 = lshr i64 %7, 40
  %9 = trunc nuw nsw i64 %8 to i32
  %10 = and i32 %9, 1048575
  %11 = icmp samesign ult i32 %10, 1048574
  br i1 %11, label %12, label %17, !prof !71

12:                                               ; preds = %4
  %13 = add i64 %7, 1099511627776
  %14 = and i64 %13, 1152920405095219200
  %15 = and i64 %7, -1152920405095219201
  %16 = or disjoint i64 %14, %15
  store i64 %16, ptr %6, align 8
  br label %_ZN4cvc58internal8TypeNodeC2ERKS1_.exit

17:                                               ; preds = %4
  %18 = icmp eq i32 %10, 1048574
  br i1 %18, label %19, label %_ZN4cvc58internal8TypeNodeC2ERKS1_.exit, !prof !72

19:                                               ; preds = %17
  %20 = or i64 %7, 1152920405095219200
  store i64 %20, ptr %6, align 8
  invoke void @_ZN4cvc58internal4expr9NodeValue20markRefCountMaxedOutEv(ptr noundef nonnull align 8 dereferenceable(24) %6)
          to label %_ZN4cvc58internal8TypeNodeC2ERKS1_.exit unwind label %21

_ZN4cvc58internal8TypeNodeC2ERKS1_.exit:          ; preds = %17, %12, %19
  ret void

21:                                               ; preds = %19
  %22 = landingpad { ptr, i32 }
          cleanup
  tail call void @_ZN4cvc58internal6theory19DecisionStrategyFmfD2Ev(ptr noundef nonnull align 8 dereferenceable(144) %0) #27
  resume { ptr, i32 } %22
}